target datalayout = "e-m:e-p270:32:32-p271:32:32-p272:64:64-i64:64-i128:128-f80:128-n8:16:32:64-S128"
target triple = "x86_64-pc-linux-gnu"

%struct.jpeg_decompress_struct = type { ptr, ptr, ptr, ptr, i32, i32, ptr, i32, i32, i32, i32, i32, i32, i32, double, i32, i32, i32, i32, i32, i32, i32, i32, i32, i32, i32, i32, i32, i32, i32, i32, i32, i32, ptr, i32, i32, i32, i32, i32, ptr, [4 x ptr], [4 x ptr], [4 x ptr], i32, ptr, i32, i32, [16 x i8], [16 x i8], [16 x i8], i32, i32, i8, i8, i8, i16, i16, i32, i8, i32, ptr, i32, i32, i32, i32, ptr, i32, [4 x ptr], i32, i32, i32, [10 x i32], i32, i32, i32, i32, i32, ptr, ptr, ptr, ptr, ptr, ptr, ptr, ptr, ptr, ptr, ptr }

; Function Attrs: nounwind uwtable
define internal void @simple_upscale(ptr noundef %0, ptr noundef %1, ptr noundef %2, i32 noundef %3) #0 {
  %5 = alloca ptr, align 8
  %6 = alloca ptr, align 8
  %7 = alloca ptr, align 8
  %8 = alloca i32, align 4
  store ptr %0, ptr %5, align 8, !tbaa !3
  store ptr %1, ptr %6, align 8, !tbaa !55
  store ptr %2, ptr %7, align 8, !tbaa !57
  store i32 %3, ptr %8, align 4, !tbaa !50
  br label %9

9:                                                ; preds = %20, %4
  %10 = load ptr, ptr %6, align 8, !tbaa !55
  %11 = getelementptr inbounds nuw i32, ptr %10, i32 1
  store ptr %11, ptr %6, align 8, !tbaa !55
  %12 = load i32, ptr %10, align 4, !tbaa !50
  %13 = load ptr, ptr %5, align 8, !tbaa !3
  %14 = getelementptr inbounds nuw %struct.jpeg_decompress_struct, ptr %13, i32 0, i32 75
  %15 = load i32, ptr %14, align 8, !tbaa !49
  %16 = shl i32 %12, %15
  %17 = trunc i32 %16 to i8
  %18 = load ptr, ptr %7, align 8, !tbaa !57
  %19 = getelementptr inbounds nuw i8, ptr %18, i32 1
  store ptr %19, ptr %7, align 8, !tbaa !57
  store i8 %17, ptr %18, align 1, !tbaa !36
  br label %20

20:                                               ; preds = %9
  %21 = load i32, ptr %8, align 4, !tbaa !50
  %22 = add i32 %21, -1
  store i32 %22, ptr %8, align 4, !tbaa !50
  %23 = icmp ne i32 %22, 0
  br i1 %23, label %9, label %24, !llvm.loop !58

24:                                               ; preds = %20
  ret void
}