; Function Attrs: nofree norecurse nosync nounwind memory(argmem: readwrite) uwtable
define internal void @simple_upscale(ptr noundef readonly captures(none) %0, ptr noundef readonly captures(none) %1, ptr noundef writeonly captures(none) %2, i32 noundef %3) #2 {
  %5 = getelementptr inbounds nuw i8, ptr %0, i64 536
  br label %6

6:                                                ; preds = %6, %4
  %.04 = phi ptr [ %1, %4 ], [ %7, %6 ]
  %.03 = phi ptr [ %2, %4 ], [ %12, %6 ]
  %.0 = phi i32 [ %3, %4 ], [ %13, %6 ]
  %7 = getelementptr inbounds nuw i8, ptr %.04, i64 4
  %8 = load i32, ptr %.04, align 4, !tbaa !52
  %9 = load i32, ptr %5, align 8, !tbaa !46
  %10 = shl i32 %8, %9
  %11 = trunc i32 %10 to i8
  %12 = getelementptr inbounds nuw i8, ptr %.03, i64 1
  store i8 %11, ptr %.03, align 1, !tbaa !34
  %13 = add i32 %.0, -1
  %.not = icmp eq i32 %13, 0
  br i1 %.not, label %14, label %6, !llvm.loop !54

14:                                               ; preds = %6
  ret void
}